target datalayout = "e-m:e-p270:32:32-p271:32:32-p272:64:64-i64:64-i128:128-f80:128-n8:16:32:64-S128"
target triple = "x86_64-pc-linux-gnu"

%struct._zval_struct = type { %union._zend_value, %union.anon, %union.anon.3 }
%union._zend_value = type { i64 }
%union.anon = type { i32 }
%union.anon.3 = type { i32 }
%struct._zend_array = type { %struct._zend_refcounted_h, %union.anon.5, i32, %union.anon.7, i32, i32, i32, i32, i64, ptr }
%struct._zend_refcounted_h = type { i32, %union.anon.4 }
%union.anon.4 = type { i32 }
%union.anon.5 = type { i32 }
%union.anon.7 = type { ptr }
%struct._sccp_ctx = type { %struct._scdf_ctx, ptr, ptr, %struct._zval_struct, %struct._zval_struct }
%struct._scdf_ctx = type { ptr, ptr, ptr, ptr, ptr, ptr, ptr, i32, i32, i32, %struct.anon }
%struct.anon = type { ptr, ptr, ptr }
%struct.anon.1 = type { i8, i8, %union.anon.2 }
%union.anon.2 = type { i16 }
%struct._zend_refcounted = type { %struct._zend_refcounted_h }

; Function Attrs: nounwind uwtable
define internal void @set_value(ptr noundef %0, ptr noundef %1, i32 noundef %2, ptr noundef %3) #0 {
  %5 = alloca ptr, align 8
  %6 = alloca ptr, align 8
  %7 = alloca ptr, align 8
  %8 = alloca ptr, align 8
  %9 = alloca ptr, align 8
  %10 = alloca ptr, align 8
  %11 = alloca ptr, align 8
  %12 = alloca ptr, align 8
  %13 = alloca ptr, align 8
  %14 = alloca ptr, align 8
  %15 = alloca ptr, align 8
  %16 = alloca ptr, align 8
  %17 = alloca ptr, align 8
  %18 = alloca ptr, align 8
  %19 = alloca ptr, align 8
  %20 = alloca ptr, align 8
  %21 = alloca ptr, align 8
  %22 = alloca ptr, align 8
  %23 = alloca ptr, align 8
  %24 = alloca ptr, align 8
  %25 = alloca i32, align 4
  %26 = alloca ptr, align 8
  %27 = alloca ptr, align 8
  %28 = alloca ptr, align 8
  %29 = alloca ptr, align 8
  %30 = alloca ptr, align 8
  %31 = alloca i32, align 4
  %32 = alloca ptr, align 8
  %33 = alloca ptr, align 8
  %34 = alloca ptr, align 8
  %35 = alloca i32, align 4
  store ptr %0, ptr %23, align 8
  store ptr %1, ptr %24, align 8
  store i32 %2, ptr %25, align 4
  store ptr %3, ptr %26, align 8
  %36 = load ptr, ptr %24, align 8
  %37 = getelementptr inbounds %struct._sccp_ctx, ptr %36, i32 0, i32 2
  %38 = load ptr, ptr %37, align 8
  %39 = load i32, ptr %25, align 4
  %40 = sext i32 %39 to i64
  %41 = getelementptr inbounds %struct._zval_struct, ptr %38, i64 %40
  store ptr %41, ptr %27, align 8
  %42 = load ptr, ptr %27, align 8
  store ptr %42, ptr %15, align 8
  %43 = load ptr, ptr %15, align 8
  %44 = getelementptr inbounds %struct._zval_struct, ptr %43, i32 0, i32 1
  %45 = load i8, ptr %44, align 8
  %46 = zext i8 %45 to i32
  %47 = icmp eq i32 %46, 254
  br i1 %47, label %55, label %48

48:                                               ; preds = %4
  %49 = load ptr, ptr %26, align 8
  store ptr %49, ptr %16, align 8
  %50 = load ptr, ptr %16, align 8
  %51 = getelementptr inbounds %struct._zval_struct, ptr %50, i32 0, i32 1
  %52 = load i8, ptr %51, align 8
  %53 = zext i8 %52 to i32
  %54 = icmp eq i32 %53, 255
  br i1 %54, label %55, label %56

55:                                               ; preds = %48, %4
  br label %229

56:                                               ; preds = %48
  %57 = load ptr, ptr %27, align 8
  store ptr %57, ptr %17, align 8
  %58 = load ptr, ptr %17, align 8
  %59 = getelementptr inbounds %struct._zval_struct, ptr %58, i32 0, i32 1
  %60 = load i8, ptr %59, align 8
  %61 = zext i8 %60 to i32
  %62 = icmp eq i32 %61, 255
  br i1 %62, label %70, label %63

63:                                               ; preds = %56
  %64 = load ptr, ptr %26, align 8
  store ptr %64, ptr %18, align 8
  %65 = load ptr, ptr %18, align 8
  %66 = getelementptr inbounds %struct._zval_struct, ptr %65, i32 0, i32 1
  %67 = load i8, ptr %66, align 8
  %68 = zext i8 %67 to i32
  %69 = icmp eq i32 %68, 254
  br i1 %69, label %70, label %129

70:                                               ; preds = %63, %56
  %71 = load ptr, ptr %27, align 8
  store ptr %71, ptr %13, align 8
  %72 = load ptr, ptr %13, align 8
  %73 = getelementptr inbounds %struct._zval_struct, ptr %72, i32 0, i32 1
  %74 = getelementptr inbounds %struct.anon.1, ptr %73, i32 0, i32 1
  %75 = load i8, ptr %74, align 1
  %76 = zext i8 %75 to i32
  %77 = icmp ne i32 %76, 0
  br i1 %77, label %78, label %98

78:                                               ; preds = %70
  %79 = load ptr, ptr %13, align 8
  store ptr %79, ptr %8, align 8
  %80 = load ptr, ptr %8, align 8
  %81 = getelementptr inbounds %struct._zval_struct, ptr %80, i32 0, i32 1
  %82 = getelementptr inbounds %struct.anon.1, ptr %81, i32 0, i32 1
  %83 = load i8, ptr %82, align 1
  %84 = zext i8 %83 to i32
  %85 = icmp ne i32 %84, 0
  call void @llvm.assume(i1 %85)
  %86 = load ptr, ptr %8, align 8
  %87 = load ptr, ptr %86, align 8
  store ptr %87, ptr %5, align 8
  %88 = load ptr, ptr %5, align 8
  %89 = load i32, ptr %88, align 4
  %90 = icmp ugt i32 %89, 0
  call void @llvm.assume(i1 %90)
  %91 = load ptr, ptr %5, align 8
  %92 = load i32, ptr %91, align 4
  %93 = add i32 %92, -1
  store i32 %93, ptr %91, align 4
  %94 = icmp ne i32 %93, 0
  br i1 %94, label %98, label %95

95:                                               ; preds = %78
  %96 = load ptr, ptr %13, align 8
  %97 = load ptr, ptr %96, align 8
  call void @rc_dtor_func(ptr noundef %97) #10
  br label %98

98:                                               ; preds = %95, %78, %70
  br label %99

99:                                               ; preds = %98
  %100 = load ptr, ptr %27, align 8
  store ptr %100, ptr %28, align 8
  %101 = load ptr, ptr %26, align 8
  store ptr %101, ptr %29, align 8
  %102 = load ptr, ptr %29, align 8
  %103 = getelementptr inbounds %struct._zval_struct, ptr %102, i32 0, i32 0
  %104 = load ptr, ptr %103, align 8
  store ptr %104, ptr %30, align 8
  %105 = load ptr, ptr %29, align 8
  %106 = getelementptr inbounds %struct._zval_struct, ptr %105, i32 0, i32 1
  %107 = load i32, ptr %106, align 8
  store i32 %107, ptr %31, align 4
  br label %108

108:                                              ; preds = %99
  %109 = load ptr, ptr %30, align 8
  %110 = load ptr, ptr %28, align 8
  %111 = getelementptr inbounds %struct._zval_struct, ptr %110, i32 0, i32 0
  store ptr %109, ptr %111, align 8
  %112 = load i32, ptr %31, align 4
  %113 = load ptr, ptr %28, align 8
  %114 = getelementptr inbounds %struct._zval_struct, ptr %113, i32 0, i32 1
  store i32 %112, ptr %114, align 8
  br label %115

115:                                              ; preds = %108
  %116 = load i32, ptr %31, align 4
  %117 = and i32 %116, 65280
  %118 = icmp ne i32 %117, 0
  br i1 %118, label %119, label %125

119:                                              ; preds = %115
  %120 = load ptr, ptr %30, align 8
  %121 = getelementptr inbounds %struct._zend_refcounted, ptr %120, i32 0, i32 0
  store ptr %121, ptr %11, align 8
  %122 = load ptr, ptr %11, align 8
  %123 = load i32, ptr %122, align 4
  %124 = add i32 %123, 1
  store i32 %124, ptr %122, align 4
  br label %125

125:                                              ; preds = %119, %115
  br label %126

126:                                              ; preds = %125
  %127 = load ptr, ptr %23, align 8
  %128 = load i32, ptr %25, align 4
  call void @scdf_add_to_worklist(ptr noundef %127, i32 noundef %128)
  br label %229

129:                                              ; preds = %63
  %130 = load ptr, ptr %26, align 8
  store ptr %130, ptr %19, align 8
  %131 = load ptr, ptr %19, align 8
  %132 = getelementptr inbounds %struct._zval_struct, ptr %131, i32 0, i32 1
  %133 = load i8, ptr %132, align 8
  %134 = zext i8 %133 to i32
  %135 = icmp eq i32 %134, 253
  br i1 %135, label %143, label %136

136:                                              ; preds = %129
  %137 = load ptr, ptr %26, align 8
  store ptr %137, ptr %20, align 8
  %138 = load ptr, ptr %20, align 8
  %139 = getelementptr inbounds %struct._zval_struct, ptr %138, i32 0, i32 1
  %140 = load i8, ptr %139, align 8
  %141 = zext i8 %140 to i32
  %142 = icmp eq i32 %141, 252
  br i1 %142, label %143, label %229

143:                                              ; preds = %136, %129
  %144 = load ptr, ptr %27, align 8
  store ptr %144, ptr %21, align 8
  %145 = load ptr, ptr %21, align 8
  %146 = getelementptr inbounds %struct._zval_struct, ptr %145, i32 0, i32 1
  %147 = load i8, ptr %146, align 8
  %148 = zext i8 %147 to i32
  %149 = load ptr, ptr %26, align 8
  store ptr %149, ptr %22, align 8
  %150 = load ptr, ptr %22, align 8
  %151 = getelementptr inbounds %struct._zval_struct, ptr %150, i32 0, i32 1
  %152 = load i8, ptr %151, align 8
  %153 = zext i8 %152 to i32
  %154 = icmp ne i32 %148, %153
  br i1 %154, label %169, label %155

155:                                              ; preds = %143
  %156 = load ptr, ptr %26, align 8
  %157 = getelementptr inbounds %struct._zval_struct, ptr %156, i32 0, i32 0
  %158 = load ptr, ptr %157, align 8
  store ptr %158, ptr %9, align 8
  %159 = load ptr, ptr %9, align 8
  %160 = getelementptr inbounds %struct._zend_array, ptr %159, i32 0, i32 5
  %161 = load i32, ptr %160, align 4
  %162 = load ptr, ptr %27, align 8
  %163 = getelementptr inbounds %struct._zval_struct, ptr %162, i32 0, i32 0
  %164 = load ptr, ptr %163, align 8
  store ptr %164, ptr %10, align 8
  %165 = load ptr, ptr %10, align 8
  %166 = getelementptr inbounds %struct._zend_array, ptr %165, i32 0, i32 5
  %167 = load i32, ptr %166, align 4
  %168 = icmp ne i32 %161, %167
  br i1 %168, label %169, label %228

169:                                              ; preds = %155, %143
  %170 = load ptr, ptr %27, align 8
  store ptr %170, ptr %14, align 8
  %171 = load ptr, ptr %14, align 8
  %172 = getelementptr inbounds %struct._zval_struct, ptr %171, i32 0, i32 1
  %173 = getelementptr inbounds %struct.anon.1, ptr %172, i32 0, i32 1
  %174 = load i8, ptr %173, align 1
  %175 = zext i8 %174 to i32
  %176 = icmp ne i32 %175, 0
  br i1 %176, label %177, label %197

177:                                              ; preds = %169
  %178 = load ptr, ptr %14, align 8
  store ptr %178, ptr %7, align 8
  %179 = load ptr, ptr %7, align 8
  %180 = getelementptr inbounds %struct._zval_struct, ptr %179, i32 0, i32 1
  %181 = getelementptr inbounds %struct.anon.1, ptr %180, i32 0, i32 1
  %182 = load i8, ptr %181, align 1
  %183 = zext i8 %182 to i32
  %184 = icmp ne i32 %183, 0
  call void @llvm.assume(i1 %184)
  %185 = load ptr, ptr %7, align 8
  %186 = load ptr, ptr %185, align 8
  store ptr %186, ptr %6, align 8
  %187 = load ptr, ptr %6, align 8
  %188 = load i32, ptr %187, align 4
  %189 = icmp ugt i32 %188, 0
  call void @llvm.assume(i1 %189)
  %190 = load ptr, ptr %6, align 8
  %191 = load i32, ptr %190, align 4
  %192 = add i32 %191, -1
  store i32 %192, ptr %190, align 4
  %193 = icmp ne i32 %192, 0
  br i1 %193, label %197, label %194

194:                                              ; preds = %177
  %195 = load ptr, ptr %14, align 8
  %196 = load ptr, ptr %195, align 8
  call void @rc_dtor_func(ptr noundef %196) #10
  br label %197

197:                                              ; preds = %194, %177, %169
  br label %198

198:                                              ; preds = %197
  %199 = load ptr, ptr %27, align 8
  store ptr %199, ptr %32, align 8
  %200 = load ptr, ptr %26, align 8
  store ptr %200, ptr %33, align 8
  %201 = load ptr, ptr %33, align 8
  %202 = getelementptr inbounds %struct._zval_struct, ptr %201, i32 0, i32 0
  %203 = load ptr, ptr %202, align 8
  store ptr %203, ptr %34, align 8
  %204 = load ptr, ptr %33, align 8
  %205 = getelementptr inbounds %struct._zval_struct, ptr %204, i32 0, i32 1
  %206 = load i32, ptr %205, align 8
  store i32 %206, ptr %35, align 4
  br label %207

207:                                              ; preds = %198
  %208 = load ptr, ptr %34, align 8
  %209 = load ptr, ptr %32, align 8
  %210 = getelementptr inbounds %struct._zval_struct, ptr %209, i32 0, i32 0
  store ptr %208, ptr %210, align 8
  %211 = load i32, ptr %35, align 4
  %212 = load ptr, ptr %32, align 8
  %213 = getelementptr inbounds %struct._zval_struct, ptr %212, i32 0, i32 1
  store i32 %211, ptr %213, align 8
  br label %214

214:                                              ; preds = %207
  %215 = load i32, ptr %35, align 4
  %216 = and i32 %215, 65280
  %217 = icmp ne i32 %216, 0
  br i1 %217, label %218, label %224

218:                                              ; preds = %214
  %219 = load ptr, ptr %34, align 8
  %220 = getelementptr inbounds %struct._zend_refcounted, ptr %219, i32 0, i32 0
  store ptr %220, ptr %12, align 8
  %221 = load ptr, ptr %12, align 8
  %222 = load i32, ptr %221, align 4
  %223 = add i32 %222, 1
  store i32 %223, ptr %221, align 4
  br label %224

224:                                              ; preds = %218, %214
  br label %225

225:                                              ; preds = %224
  %226 = load ptr, ptr %23, align 8
  %227 = load i32, ptr %25, align 4
  call void @scdf_add_to_worklist(ptr noundef %226, i32 noundef %227)
  br label %228

228:                                              ; preds = %225, %155
  br label %229

229:                                              ; preds = %228, %136, %126, %55
  ret void
}