; Function Attrs: nounwind uwtable
define internal fastcc void @set_value(ptr nocapture noundef readonly %0, ptr nocapture %.104.val, i32 noundef %1, ptr nocapture noundef readonly %2) unnamed_addr #0 {
  %4 = sext i32 %1 to i64
  %5 = getelementptr inbounds %struct._zval_struct, ptr %.104.val, i64 %4
  %6 = getelementptr inbounds i8, ptr %5, i64 8
  %7 = load i8, ptr %6, align 8
  %8 = icmp eq i8 %7, -2
  br i1 %8, label %56, label %9

9:                                                ; preds = %3
  %10 = getelementptr inbounds i8, ptr %2, i64 8
  %11 = load i8, ptr %10, align 8
  %12 = icmp eq i8 %11, -1
  br i1 %12, label %56, label %13

13:                                               ; preds = %9
  %14 = icmp eq i8 %7, -1
  %15 = icmp eq i8 %11, -2
  %or.cond = or i1 %14, %15
  br i1 %or.cond, label %16, label %30

16:                                               ; preds = %13
  %17 = getelementptr inbounds i8, ptr %5, i64 9
  %18 = load i8, ptr %17, align 1
  %.not68 = icmp eq i8 %18, 0
  br i1 %.not68, label %26, label %19

19:                                               ; preds = %16
  %20 = load ptr, ptr %5, align 8
  %21 = load i32, ptr %20, align 4
  %22 = icmp ne i32 %21, 0
  tail call void @llvm.assume(i1 %22)
  %23 = add i32 %21, -1
  store i32 %23, ptr %20, align 4
  %.not69 = icmp eq i32 %23, 0
  br i1 %.not69, label %24, label %26

24:                                               ; preds = %19
  %25 = load ptr, ptr %5, align 8
  tail call void @rc_dtor_func(ptr noundef %25) #13
  br label %26

26:                                               ; preds = %16, %19, %24
  %27 = load ptr, ptr %2, align 8
  %28 = load i32, ptr %10, align 8
  store ptr %27, ptr %5, align 8
  store i32 %28, ptr %6, align 8
  %29 = and i32 %28, 65280
  %.not70 = icmp eq i32 %29, 0
  br i1 %.not70, label %.sink.split, label %.sink.split.sink.split

30:                                               ; preds = %13
  %31 = and i8 %11, -2
  %switch = icmp eq i8 %31, -4
  br i1 %switch, label %32, label %56

32:                                               ; preds = %30
  %.not = icmp eq i8 %7, %11
  br i1 %.not, label %33, label %40

33:                                               ; preds = %32
  %34 = load ptr, ptr %2, align 8
  %35 = getelementptr inbounds i8, ptr %34, i64 28
  %36 = load i32, ptr %35, align 4
  %37 = load ptr, ptr %5, align 8
  %38 = getelementptr inbounds i8, ptr %37, i64 28
  %39 = load i32, ptr %38, align 4
  %.not64 = icmp eq i32 %36, %39
  br i1 %.not64, label %56, label %40

40:                                               ; preds = %33, %32
  %41 = getelementptr inbounds i8, ptr %5, i64 9
  %42 = load i8, ptr %41, align 1
  %.not65 = icmp eq i8 %42, 0
  br i1 %.not65, label %50, label %43

43:                                               ; preds = %40
  %44 = load ptr, ptr %5, align 8
  %45 = load i32, ptr %44, align 4
  %46 = icmp ne i32 %45, 0
  tail call void @llvm.assume(i1 %46)
  %47 = add i32 %45, -1
  store i32 %47, ptr %44, align 4
  %.not66 = icmp eq i32 %47, 0
  br i1 %.not66, label %48, label %50

48:                                               ; preds = %43
  %49 = load ptr, ptr %5, align 8
  tail call void @rc_dtor_func(ptr noundef %49) #13
  br label %50

50:                                               ; preds = %40, %43, %48
  %51 = load ptr, ptr %2, align 8
  %52 = load i32, ptr %10, align 8
  store ptr %51, ptr %5, align 8
  store i32 %52, ptr %6, align 8
  %53 = and i32 %52, 65280
  %.not67 = icmp eq i32 %53, 0
  br i1 %.not67, label %.sink.split, label %.sink.split.sink.split

.sink.split.sink.split:                           ; preds = %50, %26
  %.sink = phi ptr [ %27, %26 ], [ %51, %50 ]
  %54 = load i32, ptr %.sink, align 4
  %55 = add i32 %54, 1
  store i32 %55, ptr %.sink, align 4
  br label %.sink.split

.sink.split:                                      ; preds = %.sink.split.sink.split, %50, %26
  tail call fastcc void @scdf_add_to_worklist(ptr noundef %0, i32 noundef %1)
  br label %56

56:                                               ; preds = %.sink.split, %30, %33, %3, %9
  ret void
}